Certificate:
    Data:
        Version: 3 (0x2)
        Serial Number:
            bd:91:64:6a:35:6e:30:be:1c:c3:6b:8e:56:f0:d2:68
        Signature Algorithm: sha256WithRSAEncryption
        Issuer: CN=Easy-RSA CA
        Validity
            Not Before: May 25 14:50:19 2021 GMT
            Not After : May  9 14:50:19 2024 GMT
        Subject: CN=routersubestacao2
        Subject Public Key Info:
            Public Key Algorithm: rsaEncryption
                RSA Public-Key: (2048 bit)
                Modulus:
                    00:c3:e4:c2:17:76:b5:ef:34:04:ce:ee:29:e8:ee:
                    bf:35:16:33:f7:c4:0f:7a:ff:6d:d0:aa:f9:f4:48:
                    cb:19:00:80:8c:b0:ee:c4:96:3f:eb:0a:e3:a6:fe:
                    c4:46:60:09:b0:a8:2d:d3:58:25:4a:07:04:ab:72:
                    a3:be:bf:9f:9b:38:6d:48:3f:7c:28:dd:3d:8b:df:
                    af:a5:11:31:b2:42:7f:69:41:d9:74:27:b4:11:d6:
                    f9:d1:05:fd:2f:57:3d:66:a7:d1:d6:bd:60:b1:3b:
                    b2:35:30:1e:55:6d:f3:2c:a9:04:cf:49:6f:d1:be:
                    17:e3:b0:b1:09:2e:d8:d7:42:7f:1f:3a:97:a7:9b:
                    8f:38:30:85:f1:97:ab:95:d0:81:d5:c6:81:82:20:
                    b5:01:c4:60:6d:90:5e:0b:62:7e:e3:13:d4:3e:64:
                    dc:f8:0d:6f:7b:d3:ac:d7:6a:b5:ba:db:a5:f7:36:
                    6d:5f:2d:61:62:55:49:46:49:c2:52:d4:1e:0a:56:
                    63:ec:19:55:91:c5:ec:1a:6c:66:8f:a3:74:78:6c:
                    4c:3b:0a:16:ad:81:35:3f:75:21:ab:0d:17:d1:ce:
                    f5:a8:df:ea:53:fa:ff:69:19:f9:f1:b1:bf:fc:4c:
                    dc:9f:69:53:9a:e8:32:83:7d:d9:0e:ef:e7:f7:26:
                    ea:a5
                Exponent: 65537 (0x10001)
        X509v3 extensions:
            X509v3 Basic Constraints: 
                CA:FALSE
            X509v3 Subject Key Identifier: 
                EF:03:D2:EB:27:E5:78:30:47:58:40:C4:88:43:BC:B7:01:8E:0B:86
            X509v3 Authority Key Identifier: 
                keyid:4C:C2:A0:77:13:BD:0D:71:78:7B:1D:A5:F9:37:47:25:4D:D7:31:31
                DirName:/CN=Easy-RSA CA
                serial:1A:46:4F:79:D7:EA:E8:D8:27:AC:99:29:55:0C:EC:3E:7D:6C:55:C9

            X509v3 Extended Key Usage: 
                TLS Web Client Authentication
            X509v3 Key Usage: 
                Digital Signature
    Signature Algorithm: sha256WithRSAEncryption
         b4:a5:b1:9f:21:95:4d:e3:3a:37:ce:73:2a:92:b3:c2:99:e0:
         e4:75:9e:38:37:ed:2d:97:62:dd:78:c8:e0:88:0e:6a:57:91:
         c7:5e:df:fa:aa:2c:05:8b:f8:cd:ac:15:ea:94:cb:1b:d7:00:
         57:fd:1b:3c:b6:bf:34:fc:b6:13:50:4a:00:35:15:d6:17:c2:
         15:6a:77:b0:bf:a0:46:11:71:8e:69:83:51:f3:16:ba:e6:cd:
         03:c0:db:c0:f5:97:16:e0:b0:34:5e:18:15:59:48:ec:31:5e:
         73:70:1e:6a:ec:e6:a4:29:15:74:2d:bf:06:e9:75:62:24:b1:
         96:01:6f:36:d8:17:f5:d7:da:1d:23:48:47:1c:43:4e:6e:c0:
         5f:23:6b:ef:0d:df:d1:f5:78:59:9a:2d:d7:ec:6b:be:c0:b4:
         90:cf:80:81:a6:61:fa:49:ff:4d:b7:3f:94:48:e2:4a:71:06:
         5f:c1:c2:ee:2b:da:bc:ec:0c:ba:e0:ea:80:1c:c8:9d:30:c0:
         a2:7c:9e:62:86:4f:5a:39:ee:fc:7a:b7:b0:30:24:8f:f5:57:
         43:63:15:74:79:29:70:07:11:2b:cd:9c:20:f6:9a:83:95:82:
         67:a5:c6:2a:8f:63:65:ab:62:f5:b5:97:f3:f7:71:0b:6e:89:
         7d:ff:48:af
-----BEGIN CERTIFICATE-----
MIIDYDCCAkigAwIBAgIRAL2RZGo1bjC+HMNrjlbw0mgwDQYJKoZIhvcNAQELBQAw
FjEUMBIGA1UEAwwLRWFzeS1SU0EgQ0EwHhcNMjEwNTI1MTQ1MDE5WhcNMjQwNTA5
MTQ1MDE5WjAcMRowGAYDVQQDDBFyb3V0ZXJzdWJlc3RhY2FvMjCCASIwDQYJKoZI
hvcNAQEBBQADggEPADCCAQoCggEBAMPkwhd2te80BM7uKejuvzUWM/fED3r/bdCq
+fRIyxkAgIyw7sSWP+sK46b+xEZgCbCoLdNYJUoHBKtyo76/n5s4bUg/fCjdPYvf
r6URMbJCf2lB2XQntBHW+dEF/S9XPWan0da9YLE7sjUwHlVt8yypBM9Jb9G+F+Ow
sQku2NdCfx86l6ebjzgwhfGXq5XQgdXGgYIgtQHEYG2QXgtifuMT1D5k3PgNb3vT
rNdqtbrbpfc2bV8tYWJVSUZJwlLUHgpWY+wZVZHF7BpsZo+jdHhsTDsKFq2BNT91
IasNF9HO9ajf6lP6/2kZ+fGxv/xM3J9pU5roMoN92Q7v5/cm6qUCAwEAAaOBojCB
nzAJBgNVHRMEAjAAMB0GA1UdDgQWBBTvA9LrJ+V4MEdYQMSIQ7y3AY4LhjBRBgNV
HSMESjBIgBRMwqB3E70NcXh7HaX5N0clTdcxMaEapBgwFjEUMBIGA1UEAwwLRWFz
eS1SU0EgQ0GCFBpGT3nX6ujYJ6yZKVUM7D59bFXJMBMGA1UdJQQMMAoGCCsGAQUF
BwMCMAsGA1UdDwQEAwIHgDANBgkqhkiG9w0BAQsFAAOCAQEAtKWxnyGVTeM6N85z
KpKzwpng5HWeODftLZdi3XjI4IgOaleRx17f+qosBYv4zawV6pTLG9cAV/0bPLa/
NPy2E1BKADUV1hfCFWp3sL+gRhFxjmmDUfMWuubNA8DbwPWXFuCwNF4YFVlI7DFe
c3AeauzmpCkVdC2/Bul1YiSxlgFvNtgX9dfaHSNIRxxDTm7AXyNr7w3f0fV4WZot
1+xrvsC0kM+AgaZh+kn/Tbc/lEjiSnEGX8HC7ivavOwMuuDqgBzInTDAonyeYoZP
Wjnu/Hq3sDAkj/VXQ2MVdHkpcAcRK82cIPaag5WCZ6XGKo9jZati9bWX8/dxC26J
ff9Irw==
-----END CERTIFICATE-----
